(dp0
S'METTS MARK'
p1
(dp2
S'to_messages'
p3
I807
sS'deferral_payments'
p4
S'NaN'
p5
sS'expenses'
p6
I94299
sS'poi'
p7
I00
sS'deferred_income'
p8
g5
sS'email_address'
p9
S'mark.metts@enron.com'
p10
sS'long_term_incentive'
p11
g5
sS'restricted_stock_deferred'
p12
g5
sS'shared_receipt_with_poi'
p13
I702
sS'loan_advances'
p14
g5
sS'from_messages'
p15
I29
sS'other'
p16
I1740
sS'director_fees'
p17
g5
sS'ratio_from_msg'
p18
F0.034482758620689655
sS'bonus'
p19
I600000
sS'ratio_to_msg'
p20
F0.04708798017348203
sS'total_stock_value'
p21
I585062
sS'from_poi_to_this_person'
p22
I38
sS'sal_pkg_pct'
p23
F0.9096
sS'from_this_person_to_poi'
p24
I1
sS'restricted_stock'
p25
I585062
sS'salary'
p26
I365788
sS'total_payments'
p27
I1061827
sS'pay_stock_ratio'
p28
F1.8149
sS'exercised_stock_options'
p29
g5
ssS'BAXTER JOHN C'
p30
(dp31
g3
g5
sg4
I1295738
sg6
I11200
sg7
I00
sg8
I-1386055
sg9
g5
sg11
I1586055
sg12
g5
sg13
g5
sg14
g5
sg15
g5
sg16
I2660303
sg17
g5
sg18
I0
sg19
I1200000
sg20
I0
sg21
I10623258
sg22
g5
sg23
F0.2604
sg24
g5
sg25
I3942714
sg26
I267102
sg27
I5634343
sg28
F0.5304
sg29
I6680544
ssS'ELLIOTT STEVEN'
p32
(dp33
g3
g5
sg4
g5
sg6
I78552
sg7
I00
sg8
I-400729
sg9
S'steven.elliott@enron.com'
p34
sg11
g5
sg12
g5
sg13
g5
sg14
g5
sg15
g5
sg16
I12961
sg17
g5
sg18
I0
sg19
I350000
sg20
I0
sg21
I6678735
sg22
g5
sg23
F2.4605
sg24
g5
sg25
I1788391
sg26
I170941
sg27
I211725
sg28
F0.0317
sg29
I4890344
ssS'CORDES WILLIAM R'
p35
(dp36
g3
I764
sg4
g5
sg6
g5
sg7
I00
sg8
g5
sg9
S'bill.cordes@enron.com'
p37
sg11
g5
sg12
g5
sg13
I58
sg14
g5
sg15
I12
sg16
g5
sg17
g5
sg18
F0.0
sg19
g5
sg20
F0.013089005235602094
sg21
I1038185
sg22
I10
sg23
I0
sg24
I0
sg25
I386335
sg26
g5
sg27
g5
sg28
F0.0
sg29
I651850
ssS'HANNON KEVIN P'
p38
(dp39
g3
I1045
sg4
g5
sg6
I34039
sg7
I01
sg8
I-3117011
sg9
S'kevin.hannon@enron.com'
p40
sg11
I1617011
sg12
g5
sg13
I1035
sg14
g5
sg15
I32
sg16
I11350
sg17
g5
sg18
F0.65625
sg19
I1500000
sg20
F0.03062200956937799
sg21
I6391065
sg22
I32
sg23
F6.0388
sg24
I21
sg25
I853064
sg26
I243293
sg27
I288682
sg28
F0.0452
sg29
I5538001
ssS'MORDAUNT KRISTINA M'
p41
(dp42
g3
g5
sg4
g5
sg6
I35018
sg7
I00
sg8
g5
sg9
S'kristina.mordaunt@enron.com'
p43
sg11
g5
sg12
g5
sg13
g5
sg14
g5
sg15
g5
sg16
I1411
sg17
g5
sg18
I0
sg19
I325000
sg20
I0
sg21
I208510
sg22
g5
sg23
F0.942
sg24
g5
sg25
I208510
sg26
I267093
sg27
I628522
sg28
F3.0143
sg29
g5
ssS'MEYER ROCKFORD G'
p44
(dp45
g3
I232
sg4
I1848227
sg6
g5
sg7
I00
sg8
g5
sg9
S'rockford.meyer@enron.com'
p46
sg11
g5
sg12
g5
sg13
I22
sg14
g5
sg15
I28
sg16
g5
sg17
g5
sg18
F0.0
sg19
g5
sg20
F0.0
sg21
I955873
sg22
I0
sg23
F0.0
sg24
I0
sg25
I462384
sg26
g5
sg27
I1848227
sg28
F1.9335
sg29
I493489
ssS'MCMAHON JEFFREY'
p47
(dp48
g3
I2355
sg4
g5
sg6
I137108
sg7
I00
sg8
g5
sg9
S'jeffrey.mcmahon@enron.com'
p49
sg11
I694862
sg12
g5
sg13
I2228
sg14
g5
sg15
I48
sg16
I297353
sg17
g5
sg18
F0.5416666666666666
sg19
I2600000
sg20
F0.024628450106157114
sg21
I1662855
sg22
I58
sg23
F0.7245
sg24
I26
sg25
I558801
sg26
I370448
sg27
I4099771
sg28
F2.4655
sg29
I1104054
ssS'HORTON STANLEY C'
p50
(dp51
g3
I2350
sg4
I3131860
sg6
g5
sg7
I00
sg8
g5
sg9
S'stanley.horton@enron.com'
p52
sg11
g5
sg12
g5
sg13
I1074
sg14
g5
sg15
I1073
sg16
g5
sg17
g5
sg18
F0.013979496738117428
sg19
g5
sg20
F0.01872340425531915
sg21
I7256648
sg22
I44
sg23
F0.0
sg24
I15
sg25
I2046079
sg26
g5
sg27
I3131860
sg28
F0.4316
sg29
I5210569
ssS'PIPER GREGORY F'
p53
(dp54
g3
I1238
sg4
I1130036
sg6
I43057
sg7
I00
sg8
I-33333
sg9
S'greg.piper@enron.com'
p55
sg11
g5
sg12
I-409554
sg13
I742
sg14
g5
sg15
I222
sg16
I778
sg17
g5
sg18
F0.21621621621621623
sg19
I400000
sg20
F0.049273021001615507
sg21
I880290
sg22
I61
sg23
F0.3436
sg24
I48
sg25
I409554
sg26
I197091
sg27
I1737629
sg28
F1.9739
sg29
I880290
ssS'HUMPHREY GENE E'
p56
(dp57
g3
I128
sg4
I2964506
sg6
I4994
sg7
I00
sg8
g5
sg9
S'gene.humphrey@enron.com'
p58
sg11
g5
sg12
g5
sg13
I119
sg14
g5
sg15
I17
sg16
g5
sg17
g5
sg18
F1.0
sg19
g5
sg20
F0.078125
sg21
I2282768
sg22
I10
sg23
F0.0422
sg24
I17
sg25
g5
sg26
I130724
sg27
I3100224
sg28
F1.3581
sg29
I2282768
ssS'UMANOFF ADAM S'
p59
(dp60
g3
I111
sg4
g5
sg6
I53122
sg7
I00
sg8
g5
sg9
S'adam.umanoff@enron.com'
p61
sg11
g5
sg12
g5
sg13
I41
sg14
g5
sg15
I18
sg16
g5
sg17
g5
sg18
F0.0
sg19
I788750
sg20
F0.10810810810810811
sg21
g5
sg22
I12
sg23
F0.953
sg24
I0
sg25
g5
sg26
I288589
sg27
I1130461
sg28
I0
sg29
g5
ssS'BLACHMAN JEREMY M'
p62
(dp63
g3
I2475
sg4
g5
sg6
I84208
sg7
I00
sg8
g5
sg9
S'jeremy.blachman@enron.com'
p64
sg11
I831809
sg12
g5
sg13
I2326
sg14
g5
sg15
I14
sg16
I272
sg17
g5
sg18
F0.14285714285714285
sg19
I850000
sg20
F0.010101010101010102
sg21
I954354
sg22
I25
sg23
F0.5452
sg24
I2
sg25
I189041
sg26
I248546
sg27
I2014835
sg28
F2.1112
sg29
I765313
ssS'SUNDE MARTIN'
p65
(dp66
g3
I2647
sg4
g5
sg6
g5
sg7
I00
sg8
g5
sg9
S'marty.sunde@enron.com'
p67
sg11
I476451
sg12
g5
sg13
I2565
sg14
g5
sg15
I38
sg16
I111122
sg17
g5
sg18
F0.34210526315789475
sg19
I700000
sg20
F0.013978088401964487
sg21
I698920
sg22
I37
sg23
F0.6197
sg24
I13
sg25
I698920
sg26
I257486
sg27
I1545059
sg28
F2.2106
sg29
g5
ssS'GIBBS DANA R'
p68
(dp69
g3
I169
sg4
I504610
sg6
g5
sg7
I00
sg8
g5
sg9
S'dana.gibbs@enron.com'
p70
sg11
I461912
sg12
g5
sg13
I23
sg14
g5
sg15
I12
sg16
g5
sg17
g5
sg18
F0.0
sg19
g5
sg20
F0.0
sg21
I2218275
sg22
I0
sg23
F0.0
sg24
I0
sg25
g5
sg26
g5
sg27
I966522
sg28
F0.4357
sg29
I2218275
ssS'LOWRY CHARLES P'
p71
(dp72
g3
g5
sg4
g5
sg6
g5
sg7
I00
sg8
g5
sg9
g5
sg11
g5
sg12
I-153686
sg13
g5
sg14
g5
sg15
g5
sg16
g5
sg17
g5
sg18
I0
sg19
g5
sg20
I0
sg21
I372205
sg22
g5
sg23
I0
sg24
g5
sg25
I153686
sg26
g5
sg27
g5
sg28
F0.0
sg29
I372205
ssS'COLWELL WESLEY'
p73
(dp74
g3
I1758
sg4
I27610
sg6
I16514
sg7
I01
sg8
I-144062
sg9
S'wes.colwell@enron.com'
p75
sg11
g5
sg12
g5
sg13
I1132
sg14
g5
sg15
I40
sg16
I101740
sg17
g5
sg18
F0.275
sg19
I1200000
sg20
F0.13651877133105803
sg21
I698242
sg22
I240
sg23
F0.9988
sg24
I11
sg25
I698242
sg26
I288542
sg27
I1490344
sg28
F2.1344
sg29
g5
ssS'MULLER MARK S'
p76
(dp77
g3
I136
sg4
I842924
sg6
g5
sg7
I00
sg8
I-719000
sg9
S's..muller@enron.com'
p78
sg11
I1725545
sg12
g5
sg13
I114
sg14
g5
sg15
I16
sg16
I947
sg17
g5
sg18
F0.0
sg19
I1100000
sg20
F0.08823529411764706
sg21
I1416848
sg22
I12
sg23
F0.4221
sg24
I0
sg25
I360528
sg26
I251654
sg27
I3202070
sg28
F2.26
sg29
I1056320
ssS'JACKSON CHARLENE R'
p79
(dp80
g3
I258
sg4
g5
sg6
I10181
sg7
I00
sg8
g5
sg9
S'charlene.jackson@enron.com'
p81
sg11
g5
sg12
g5
sg13
I117
sg14
g5
sg15
I56
sg16
I2435
sg17
g5
sg18
F0.3392857142857143
sg19
I250000
sg20
F0.09689922480620156
sg21
I725735
sg22
I25
sg23
F0.9771
sg24
I19
sg25
I540672
sg26
I288558
sg27
I551174
sg28
F0.7595
sg29
I185063
ssS'WESTFAHL RICHARD K'
p82
(dp83
g3
g5
sg4
g5
sg6
I51870
sg7
I00
sg8
I-10800
sg9
S'dick.westfahl@enron.com'
p84
sg11
I256191
sg12
g5
sg13
g5
sg14
g5
sg15
g5
sg16
I401130
sg17
g5
sg18
I0
sg19
g5
sg20
I0
sg21
I384930
sg22
g5
sg23
F0.0836
sg24
g5
sg25
I384930
sg26
I63744
sg27
I762135
sg28
F1.9799
sg29
g5
ssS'WALTERS GARETH W'
p85
(dp86
g3
g5
sg4
I53625
sg6
I33785
sg7
I00
sg8
g5
sg9
g5
sg11
g5
sg12
g5
sg13
g5
sg14
g5
sg15
g5
sg16
g5
sg17
g5
sg18
I0
sg19
g5
sg20
I0
sg21
I1030329
sg22
g5
sg23
F0.0
sg24
g5
sg25
g5
sg26
g5
sg27
I87410
sg28
F0.0848
sg29
I1030329
ssS'WALLS JR ROBERT H'
p87
(dp88
g3
I671
sg4
g5
sg6
I50936
sg7
I00
sg8
g5
sg9
S'rob.walls@enron.com'
p89
sg11
I540751
sg12
g5
sg13
I215
sg14
g5
sg15
I146
sg16
I2
sg17
g5
sg18
F0.0
sg19
I850000
sg20
F0.02533532041728763
sg21
I5898997
sg22
I17
sg23
F0.6711
sg24
I0
sg25
I1552453
sg26
I357091
sg27
I1798780
sg28
F0.3049
sg29
I4346544
ssS'KITCHEN LOUISE'
p90
(dp91
g3
I8305
sg4
g5
sg6
I5774
sg7
I00
sg8
g5
sg9
S'louise.kitchen@enron.com'
p92
sg11
g5
sg12
g5
sg13
I3669
sg14
g5
sg15
I1728
sg16
I93925
sg17
g5
sg18
F0.11226851851851852
sg19
I3100000
sg20
F0.030222757375075255
sg21
I547143
sg22
I251
sg23
F0.9713
sg24
I194
sg25
I466101
sg26
I271442
sg27
I3471141
sg28
F6.3441
sg29
I81042
ssS'CHAN RONNIE'
p93
(dp94
g3
g5
sg4
g5
sg6
g5
sg7
I00
sg8
I-98784
sg9
g5
sg11
g5
sg12
I-32460
sg13
g5
sg14
g5
sg15
g5
sg16
g5
sg17
I98784
sg18
I0
sg19
g5
sg20
I0
sg21
g5
sg22
g5
sg23
I0
sg24
g5
sg25
I32460
sg26
g5
sg27
g5
sg28
I0
sg29
g5
ssS'BELFER ROBERT'
p95
(dp96
g3
g5
sg4
I-102500
sg6
g5
sg7
I00
sg8
g5
sg9
g5
sg11
g5
sg12
I44093
sg13
g5
sg14
g5
sg15
g5
sg16
g5
sg17
I3285
sg18
I0
sg19
g5
sg20
I0
sg21
I-44093
sg22
g5
sg23
F0.0
sg24
g5
sg25
g5
sg26
g5
sg27
I102500
sg28
F-2.3246
sg29
I3285
ssS'SHANKMAN JEFFREY A'
p97
(dp98
g3
I3221
sg4
g5
sg6
I178979
sg7
I00
sg8
g5
sg9
S'jeffrey.shankman@enron.com'
p99
sg11
I554422
sg12
g5
sg13
I1730
sg14
g5
sg15
I2681
sg16
I1191
sg17
g5
sg18
F0.030958597538232
sg19
I2000000
sg20
F0.029183483390251473
sg21
I2072035
sg22
I94
sg23
F0.7583
sg24
I83
sg25
I630137
sg26
I304110
sg27
I3038702
sg28
F1.4665
sg29
I1441898
ssS'WODRASKA JOHN'
p100
(dp101
g3
g5
sg4
g5
sg6
g5
sg7
I00
sg8
g5
sg9
S'john.wodraska@enron.com'
p102
sg11
g5
sg12
g5
sg13
g5
sg14
g5
sg15
g5
sg16
I189583
sg17
g5
sg18
I0
sg19
g5
sg20
I0
sg21
g5
sg22
g5
sg23
F0.0
sg24
g5
sg25
g5
sg26
g5
sg27
I189583
sg28
I0
sg29
g5
ssS'BERGSIEKER RICHARD P'
p103
(dp104
g3
I383
sg4
g5
sg6
I59175
sg7
I00
sg8
I-485813
sg9
S'rick.bergsieker@enron.com'
p105
sg11
I180250
sg12
g5
sg13
I233
sg14
g5
sg15
I59
sg16
I427316
sg17
g5
sg18
F0.0
sg19
I250000
sg20
F0.010443864229765013
sg21
I659249
sg22
I4
sg23
F0.7076
sg24
I0
sg25
I659249
sg26
I187922
sg27
I618850
sg28
F0.9387
sg29
g5
ssS'URQUHART JOHN A'
p106
(dp107
g3
g5
sg4
g5
sg6
I228656
sg7
I00
sg8
I-36666
sg9
g5
sg11
g5
sg12
g5
sg13
g5
sg14
g5
sg15
g5
sg16
g5
sg17
I36666
sg18
I0
sg19
g5
sg20
I0
sg21
g5
sg22
g5
sg23
F0.0
sg24
g5
sg25
g5
sg26
g5
sg27
I228656
sg28
I0
sg29
g5
ssS'BIBI PHILIPPE A'
p108
(dp109
g3
I1607
sg4
g5
sg6
I38559
sg7
I00
sg8
g5
sg9
S'philippe.bibi@enron.com'
p110
sg11
I369721
sg12
g5
sg13
I1336
sg14
g5
sg15
I40
sg16
I425688
sg17
g5
sg18
F0.2
sg19
I1000000
sg20
F0.01431238332296204
sg21
I1843816
sg22
I23
sg23
F0.5927
sg24
I8
sg25
I378082
sg26
I213625
sg27
I2047593
sg28
F1.1105
sg29
I1465734
ssS'RIEKER PAULA H'
p111
(dp112
g3
I1328
sg4
I214678
sg6
I33271
sg7
I01
sg8
I-100000
sg9
S'paula.rieker@enron.com'
p113
sg11
g5
sg12
g5
sg13
I1258
sg14
g5
sg15
I82
sg16
I1950
sg17
g5
sg18
F0.5853658536585366
sg19
I700000
sg20
F0.02635542168674699
sg21
I1918887
sg22
I35
sg23
F0.8636
sg24
I48
sg25
I283649
sg26
I249201
sg27
I1099100
sg28
F0.5728
sg29
I1635238
ssS'WHALEY DAVID A'
p114
(dp115
g3
g5
sg4
g5
sg6
g5
sg7
I00
sg8
g5
sg9
g5
sg11
g5
sg12
g5
sg13
g5
sg14
g5
sg15
g5
sg16
g5
sg17
g5
sg18
I0
sg19
g5
sg20
I0
sg21
I98718
sg22
g5
sg23
I0
sg24
g5
sg25
g5
sg26
g5
sg27
g5
sg28
F0.0
sg29
I98718
ssS'BECK SALLY W'
p116
(dp117
g3
I7315
sg4
g5
sg6
I37172
sg7
I00
sg8
g5
sg9
S'sally.beck@enron.com'
p118
sg11
g5
sg12
g5
sg13
I2639
sg14
g5
sg15
I4343
sg16
I566
sg17
g5
sg18
F0.08887865530739121
sg19
I700000
sg20
F0.01968557758031442
sg21
I126027
sg22
I144
sg23
F0.9611
sg24
I386
sg25
I126027
sg26
I231330
sg27
I969068
sg28
F7.6894
sg29
g5
ssS'HAUG DAVID L'
p119
(dp120
g3
I573
sg4
g5
sg6
I475
sg7
I00
sg8
g5
sg9
S'david.haug@enron.com'
p121
sg11
g5
sg12
g5
sg13
I471
sg14
g5
sg15
I19
sg16
g5
sg17
g5
sg18
F0.3684210526315789
sg19
g5
sg20
F0.006980802792321117
sg21
I2217299
sg22
I4
sg23
F0.0
sg24
I7
sg25
I2217299
sg26
g5
sg27
I475
sg28
F0.0002
sg29
g5
ssS'ECHOLS JOHN B'
p122
(dp123
g3
g5
sg4
g5
sg6
I21530
sg7
I00
sg8
g5
sg9
S'john.echols@enron.com'
p124
sg11
I2234774
sg12
g5
sg13
g5
sg14
g5
sg15
g5
sg16
I53775
sg17
g5
sg18
I0
sg19
I200000
sg20
I0
sg21
I1008941
sg22
g5
sg23
F0.142
sg24
g5
sg25
I407503
sg26
I182245
sg27
I2692324
sg28
F2.6685
sg29
I601438
ssS'MENDELSOHN JOHN'
p125
(dp126
g3
g5
sg4
g5
sg6
I148
sg7
I00
sg8
I-103750
sg9
g5
sg11
g5
sg12
g5
sg13
g5
sg14
g5
sg15
g5
sg16
g5
sg17
I103750
sg18
I0
sg19
g5
sg20
I0
sg21
g5
sg22
g5
sg23
F0.0
sg24
g5
sg25
g5
sg26
g5
sg27
I148
sg28
I0
sg29
g5
ssS'HICKERSON GARY J'
p127
(dp128
g3
I1320
sg4
g5
sg6
I98849
sg7
I00
sg8
g5
sg9
S'gary.hickerson@enron.com'
p129
sg11
I69223
sg12
g5
sg13
I900
sg14
g5
sg15
I27
sg16
I1936
sg17
g5
sg18
F0.037037037037037035
sg19
I1700000
sg20
F0.030303030303030304
sg21
I441096
sg22
I40
sg23
F0.9183
sg24
I1
sg25
I441096
sg26
I211788
sg27
I2081796
sg28
F4.7196
sg29
g5
ssS'CLINE KENNETH W'
p130
(dp131
g3
g5
sg4
g5
sg6
g5
sg7
I00
sg8
g5
sg9
g5
sg11
g5
sg12
I-472568
sg13
g5
sg14
g5
sg15
g5
sg16
g5
sg17
g5
sg18
I0
sg19
g5
sg20
I0
sg21
I189518
sg22
g5
sg23
I0
sg24
g5
sg25
I662086
sg26
g5
sg27
g5
sg28
F0.0
sg29
g5
ssS'LEWIS RICHARD'
p132
(dp133
g3
I952
sg4
g5
sg6
g5
sg7
I00
sg8
g5
sg9
S'richard.lewis@enron.com'
p134
sg11
g5
sg12
g5
sg13
I739
sg14
g5
sg15
I26
sg16
g5
sg17
g5
sg18
F0.0
sg19
g5
sg20
F0.01050420168067227
sg21
I850477
sg22
I10
sg23
I0
sg24
I0
sg25
g5
sg26
g5
sg27
g5
sg28
F0.0
sg29
I850477
ssS'HAYES ROBERT E'
p135
(dp136
g3
I504
sg4
I7961
sg6
g5
sg7
I00
sg8
g5
sg9
S'robert.hayes@enron.com'
p137
sg11
g5
sg12
g5
sg13
I50
sg14
g5
sg15
I12
sg16
g5
sg17
g5
sg18
F0.0
sg19
g5
sg20
F0.031746031746031744
sg21
I151418
sg22
I16
sg23
F0.0
sg24
I0
sg25
I151418
sg26
g5
sg27
I7961
sg28
F0.0526
sg29
g5
ssS'MCCARTY DANNY J'
p138
(dp139
g3
I1433
sg4
g5
sg6
g5
sg7
I00
sg8
g5
sg9
S'danny.mccarty@enron.com'
p140
sg11
g5
sg12
g5
sg13
I508
sg14
g5
sg15
I215
sg16
g5
sg17
g5
sg18
F0.009302325581395349
sg19
g5
sg20
F0.017445917655268667
sg21
I758931
sg22
I25
sg23
I0
sg24
I2
sg25
I94556
sg26
g5
sg27
g5
sg28
F0.0
sg29
I664375
ssS'KOPPER MICHAEL J'
p141
(dp142
g3
g5
sg4
g5
sg6
I118134
sg7
I01
sg8
g5
sg9
S'michael.kopper@enron.com'
p143
sg11
I602671
sg12
g5
sg13
g5
sg14
g5
sg15
g5
sg16
I907502
sg17
g5
sg18
I0
sg19
I800000
sg20
I0
sg21
I985032
sg22
g5
sg23
F0.3861
sg24
g5
sg25
I985032
sg26
I224305
sg27
I2652612
sg28
F2.6929
sg29
g5
ssS'LEFF DANIEL P'
p144
(dp145
g3
I2822
sg4
g5
sg6
g5
sg7
I00
sg8
g5
sg9
S'dan.leff@enron.com'
p146
sg11
I1387399
sg12
g5
sg13
I2672
sg14
g5
sg15
I63
sg16
I3083
sg17
g5
sg18
F0.2222222222222222
sg19
I1000000
sg20
F0.02374202693125443
sg21
I360528
sg22
I67
sg23
F0.4781
sg24
I14
sg25
I360528
sg26
I273746
sg27
I2664228
sg28
F7.3898
sg29
g5
ssS'LAVORATO JOHN J'
p147
(dp148
g3
I7259
sg4
g5
sg6
I49537
sg7
I00
sg8
g5
sg9
S'john.lavorato@enron.com'
p149
sg11
I2035380
sg12
g5
sg13
I3962
sg14
g5
sg15
I2585
sg16
I1552
sg17
g5
sg18
F0.15899419729206962
sg19
I8000000
sg20
F0.07273729163796666
sg21
I5167144
sg22
I528
sg23
F0.7999
sg24
I411
sg25
I1008149
sg26
I339288
sg27
I10425757
sg28
F2.0177
sg29
I4158995
ssS'BERBERIAN DAVID'
p150
(dp151
g3
g5
sg4
g5
sg6
I11892
sg7
I00
sg8
g5
sg9
S'david.berberian@enron.com'
p152
sg11
g5
sg12
g5
sg13
g5
sg14
g5
sg15
g5
sg16
g5
sg17
g5
sg18
I0
sg19
g5
sg20
I0
sg21
I2493616
sg22
g5
sg23
F0.948
sg24
g5
sg25
I869220
sg26
I216582
sg27
I228474
sg28
F0.0916
sg29
I1624396
ssS'DETMERING TIMOTHY J'
p153
(dp154
g3
g5
sg4
I875307
sg6
I52255
sg7
I00
sg8
I-775241
sg9
S'timothy.detmering@enron.com'
p155
sg11
I415657
sg12
I-315068
sg13
g5
sg14
g5
sg15
g5
sg16
I1105
sg17
g5
sg18
I0
sg19
I425000
sg20
I0
sg21
I2027865
sg22
g5
sg23
F0.5276
sg24
g5
sg25
I315068
sg26
I210500
sg27
I1204583
sg28
F0.594
sg29
I2027865
ssS'WAKEHAM JOHN'
p156
(dp157
g3
g5
sg4
g5
sg6
I103773
sg7
I00
sg8
g5
sg9
g5
sg11
g5
sg12
g5
sg13
g5
sg14
g5
sg15
g5
sg16
g5
sg17
I109298
sg18
I0
sg19
g5
sg20
I0
sg21
g5
sg22
g5
sg23
F0.0
sg24
g5
sg25
g5
sg26
g5
sg27
I213071
sg28
I0
sg29
g5
ssS'POWERS WILLIAM'
p158
(dp159
g3
I653
sg4
g5
sg6
g5
sg7
I00
sg8
I-17500
sg9
S'ken.powers@enron.com'
p160
sg11
g5
sg12
g5
sg13
I12
sg14
g5
sg15
I26
sg16
g5
sg17
I17500
sg18
F0.0
sg19
g5
sg20
F0.0
sg21
g5
sg22
I0
sg23
I0
sg24
I0
sg25
g5
sg26
g5
sg27
g5
sg28
I0
sg29
g5
ssS'GOLD JOSEPH'
p161
(dp162
g3
g5
sg4
g5
sg6
g5
sg7
I00
sg8
g5
sg9
S'joe.gold@enron.com'
p163
sg11
I304805
sg12
g5
sg13
g5
sg14
g5
sg15
g5
sg16
I819288
sg17
g5
sg18
I0
sg19
I750000
sg20
I0
sg21
I877611
sg22
g5
sg23
F0.4764
sg24
g5
sg25
I441096
sg26
I272880
sg27
I2146973
sg28
F2.4464
sg29
I436515
ssS'BANNANTINE JAMES M'
p164
(dp165
g3
I566
sg4
g5
sg6
I56301
sg7
I00
sg8
I-5104
sg9
S'james.bannantine@enron.com'
p166
sg11
g5
sg12
I-560222
sg13
I465
sg14
g5
sg15
I29
sg16
I864523
sg17
g5
sg18
F0.0
sg19
g5
sg20
F0.06890459363957598
sg21
I5243487
sg22
I39
sg23
F0.0005
sg24
I0
sg25
I1757552
sg26
I477
sg27
I916197
sg28
F0.1747
sg29
I4046157
ssS'DUNCAN JOHN H'
p167
(dp168
g3
g5
sg4
g5
sg6
g5
sg7
I00
sg8
I-25000
sg9
g5
sg11
g5
sg12
g5
sg13
g5
sg14
g5
sg15
g5
sg16
g5
sg17
I102492
sg18
I0
sg19
g5
sg20
I0
sg21
I371750
sg22
g5
sg23
F0.0
sg24
g5
sg25
g5
sg26
g5
sg27
I77492
sg28
F0.2085
sg29
I371750
ssS'SHAPIRO RICHARD S'
p169
(dp170
g3
I15149
sg4
g5
sg6
I137767
sg7
I00
sg8
g5
sg9
S'richard.shapiro@enron.com'
p171
sg11
g5
sg12
g5
sg13
I4527
sg14
g5
sg15
I1215
sg16
I705
sg17
g5
sg18
F0.053497942386831275
sg19
I650000
sg20
F0.0048848108786058485
sg21
I987001
sg22
I74
sg23
F0.8691
sg24
I65
sg25
I379164
sg26
I269076
sg27
I1057548
sg28
F1.0715
sg29
I607837
ssS'SHERRIFF JOHN R'
p172
(dp173
g3
I3187
sg4
g5
sg6
g5
sg7
I00
sg8
g5
sg9
S'john.sherriff@enron.com'
p174
sg11
I554422
sg12
g5
sg13
I2103
sg14
g5
sg15
I92
sg16
I1852186
sg17
g5
sg18
F0.25
sg19
I1500000
sg20
F0.008785691873235017
sg21
I3128982
sg22
I28
sg23
F0.4449
sg24
I23
sg25
I1293424
sg26
I428780
sg27
I4335388
sg28
F1.3856
sg29
I1835558
ssS'SHELBY REX'
p175
(dp176
g3
I225
sg4
g5
sg6
I22884
sg7
I01
sg8
I-4167
sg9
S'rex.shelby@enron.com'
p177
sg11
g5
sg12
g5
sg13
I91
sg14
g5
sg15
I39
sg16
I1573324
sg17
g5
sg18
F0.358974358974359
sg19
I200000
sg20
F0.057777777777777775
sg21
I2493616
sg22
I13
sg23
F0.2055
sg24
I14
sg25
I869220
sg26
I211844
sg27
I2003885
sg28
F0.8036
sg29
I1624396
ssS'LEMAISTRE CHARLES'
p178
(dp179
g3
g5
sg4
g5
sg6
g5
sg7
I00
sg8
I-25000
sg9
g5
sg11
g5
sg12
g5
sg13
g5
sg14
g5
sg15
g5
sg16
g5
sg17
I112492
sg18
I0
sg19
g5
sg20
I0
sg21
I412878
sg22
g5
sg23
F0.0
sg24
g5
sg25
g5
sg26
g5
sg27
I87492
sg28
F0.2119
sg29
I412878
ssS'DEFFNER JOSEPH M'
p180
(dp181
g3
I714
sg4
g5
sg6
I41626
sg7
I00
sg8
g5
sg9
S'joseph.deffner@enron.com'
p182
sg11
I335349
sg12
g5
sg13
I552
sg14
g5
sg15
I74
sg16
I25553
sg17
g5
sg18
F0.05405405405405406
sg19
I600000
sg20
F0.16106442577030813
sg21
I159211
sg22
I115
sg23
F0.667
sg24
I4
sg25
I141833
sg26
I206121
sg27
I1208649
sg28
F7.5915
sg29
I17378
ssS'KISHKILL JOSEPH G'
p183
(dp184
g3
g5
sg4
g5
sg6
I116335
sg7
I00
sg8
I-51042
sg9
S'joe.kishkill@enron.com'
p185
sg11
g5
sg12
g5
sg13
g5
sg14
g5
sg15
g5
sg16
I465357
sg17
g5
sg18
I0
sg19
g5
sg20
I0
sg21
I1034346
sg22
g5
sg23
F0.2472
sg24
g5
sg25
I1034346
sg26
I174246
sg27
I704896
sg28
F0.6815
sg29
g5
ssS'WHALLEY LAWRENCE G'
p186
(dp187
g3
I6019
sg4
g5
sg6
I57838
sg7
I00
sg8
g5
sg9
S'greg.whalley@enron.com'
p188
sg11
I808346
sg12
g5
sg13
I3920
sg14
g5
sg15
I556
sg16
I301026
sg17
g5
sg18
F0.04316546762589928
sg19
I3000000
sg20
F0.03090214321315833
sg21
I6079137
sg22
I186
sg23
F0.7505
sg24
I24
sg25
I2796177
sg26
I510364
sg27
I4677574
sg28
F0.7694
sg29
I3282960
ssS'MCCONNELL MICHAEL S'
p189
(dp190
g3
I3329
sg4
g5
sg6
I81364
sg7
I00
sg8
g5
sg9
S'mike.mcconnell@enron.com'
p191
sg11
I554422
sg12
g5
sg13
I2189
sg14
g5
sg15
I2742
sg16
I540
sg17
g5
sg18
F0.07075127644055434
sg19
I1100000
sg20
F0.02763592670471613
sg21
I3101279
sg22
I92
sg23
F0.6972
sg24
I194
sg25
I1478269
sg26
I365038
sg27
I2101364
sg28
F0.6776
sg29
I1623010
ssS'PIRO JIM'
p192
(dp193
g3
I58
sg4
g5
sg6
g5
sg7
I00
sg8
g5
sg9
S'jim.piro@enron.com'
p194
sg11
g5
sg12
g5
sg13
I3
sg14
g5
sg15
I16
sg16
g5
sg17
g5
sg18
F0.0625
sg19
g5
sg20
F0.0
sg21
I47304
sg22
I0
sg23
I0
sg24
I1
sg25
I47304
sg26
g5
sg27
g5
sg28
F0.0
sg29
g5
ssS'DELAINEY DAVID W'
p195
(dp196
g3
I3093
sg4
g5
sg6
I86174
sg7
I01
sg8
g5
sg9
S'david.delainey@enron.com'
p197
sg11
I1294981
sg12
g5
sg13
I2097
sg14
g5
sg15
I3069
sg16
I1661
sg17
g5
sg18
F0.198435972629521
sg19
I3000000
sg20
F0.02133850630455868
sg21
I3614261
sg22
I66
sg23
F0.7088
sg24
I609
sg25
I1323148
sg26
I365163
sg27
I4747979
sg28
F1.3137
sg29
I2291113
ssS'SULLIVAN-SHAKLOVITZ COLLEEN'
p198
(dp199
g3
g5
sg4
I181993
sg6
g5
sg7
I00
sg8
g5
sg9
g5
sg11
I554422
sg12
g5
sg13
g5
sg14
g5
sg15
g5
sg16
I162
sg17
g5
sg18
I0
sg19
I100000
sg20
I0
sg21
I1362375
sg22
g5
sg23
F0.2629
sg24
g5
sg25
g5
sg26
I162779
sg27
I999356
sg28
F0.7335
sg29
I1362375
ssS'WROBEL BRUCE'
p200
(dp201
g3
g5
sg4
g5
sg6
g5
sg7
I00
sg8
g5
sg9
g5
sg11
g5
sg12
g5
sg13
g5
sg14
g5
sg15
g5
sg16
g5
sg17
g5
sg18
I0
sg19
g5
sg20
I0
sg21
I139130
sg22
g5
sg23
I0
sg24
g5
sg25
g5
sg26
g5
sg27
g5
sg28
F0.0
sg29
I139130
ssS'LINDHOLM TOD A'
p202
(dp203
g3
g5
sg4
I204075
sg6
I57727
sg7
I00
sg8
g5
sg9
S'tod.lindholm@enron.com'
p204
sg11
I175000
sg12
g5
sg13
g5
sg14
g5
sg15
g5
sg16
I2630
sg17
g5
sg18
I0
sg19
I200000
sg20
I0
sg21
I3064208
sg22
g5
sg23
F0.4983
sg24
g5
sg25
I514847
sg26
I236457
sg27
I875889
sg28
F0.2858
sg29
I2549361
ssS'MEYER JEROME J'
p205
(dp206
g3
g5
sg4
g5
sg6
I2151
sg7
I00
sg8
I-38346
sg9
g5
sg11
g5
sg12
g5
sg13
g5
sg14
g5
sg15
g5
sg16
g5
sg17
I38346
sg18
I0
sg19
g5
sg20
I0
sg21
g5
sg22
g5
sg23
F0.0
sg24
g5
sg25
g5
sg26
g5
sg27
I2151
sg28
I0
sg29
g5
ssS'LAY KENNETH L'
p207
(dp208
g3
I4273
sg4
I202911
sg6
I99832
sg7
I01
sg8
I-300000
sg9
S'kenneth.lay@enron.com'
p209
sg11
I3600000
sg12
g5
sg13
I2411
sg14
I81525000
sg15
I36
sg16
I10359729
sg17
g5
sg18
F0.4444444444444444
sg19
I7000000
sg20
F0.028785396676807865
sg21
I49110078
sg22
I123
sg23
F0.0779
sg24
I16
sg25
I14761694
sg26
I1072321
sg27
I103559793
sg28
F2.1087
sg29
I34348384
ssS'BUTTS ROBERT H'
p210
(dp211
g3
g5
sg4
g5
sg6
I9410
sg7
I00
sg8
I-75000
sg9
S'bob.butts@enron.com'
p212
sg11
I175000
sg12
g5
sg13
g5
sg14
g5
sg15
g5
sg16
I150656
sg17
g5
sg18
I0
sg19
I750000
sg20
I0
sg21
I417619
sg22
g5
sg23
F0.7955
sg24
g5
sg25
I417619
sg26
I261516
sg27
I1271582
sg28
F3.0448
sg29
g5
ssS'OLSON CINDY K'
p213
(dp214
g3
I1184
sg4
I77716
sg6
I63791
sg7
I00
sg8
g5
sg9
S'cindy.olson@enron.com'
p215
sg11
I100000
sg12
g5
sg13
I856
sg14
g5
sg15
I52
sg16
I972
sg17
g5
sg18
F0.28846153846153844
sg19
I750000
sg20
F0.016891891891891893
sg21
I2606763
sg22
I20
sg23
F0.8165
sg24
I15
sg25
I969729
sg26
I329078
sg27
I1321557
sg28
F0.507
sg29
I1637034
ssS'MCDONALD REBECCA'
p216
(dp217
g3
I894
sg4
g5
sg6
g5
sg7
I00
sg8
g5
sg9
S'rebecca.mcdonald@enron.com'
p218
sg11
g5
sg12
g5
sg13
I720
sg14
g5
sg15
I13
sg16
g5
sg17
g5
sg18
F0.07692307692307693
sg19
g5
sg20
F0.06040268456375839
sg21
I1691366
sg22
I54
sg23
I0
sg24
I1
sg25
I934065
sg26
g5
sg27
g5
sg28
F0.0
sg29
I757301
ssS'CUMBERLAND MICHAEL S'
p219
(dp220
g3
g5
sg4
g5
sg6
I22344
sg7
I00
sg8
g5
sg9
g5
sg11
I275000
sg12
g5
sg13
g5
sg14
g5
sg15
g5
sg16
I713
sg17
g5
sg18
I0
sg19
I325000
sg20
I0
sg21
I207940
sg22
g5
sg23
F0.6311
sg24
g5
sg25
I207940
sg26
I184899
sg27
I807956
sg28
F3.8855
sg29
g5
ssS'GAHN ROBERT S'
p221
(dp222
g3
g5
sg4
I73122
sg6
I50080
sg7
I00
sg8
I-1042
sg9
g5
sg11
g5
sg12
g5
sg13
g5
sg14
g5
sg15
g5
sg16
I76547
sg17
g5
sg18
I0
sg19
I509870
sg20
I0
sg21
I318607
sg22
g5
sg23
F0.7794
sg24
g5
sg25
I235370
sg26
I192008
sg27
I900585
sg28
F2.8266
sg29
I83237
ssS'MCCLELLAN GEORGE'
p223
(dp224
g3
I1744
sg4
g5
sg6
I228763
sg7
I00
sg8
I-125000
sg9
S'george.mcclellan@enron.com'
p225
sg11
g5
sg12
g5
sg13
I1469
sg14
g5
sg15
I49
sg16
I51587
sg17
g5
sg18
F0.0
sg19
I900000
sg20
F0.02981651376146789
sg21
I947861
sg22
I52
sg23
F0.8822
sg24
I0
sg25
I441096
sg26
I263413
sg27
I1318763
sg28
F1.3913
sg29
I506765
ssS'HERMANN ROBERT J'
p226
(dp227
g3
g5
sg4
g5
sg6
I48357
sg7
I00
sg8
I-280000
sg9
S'robert.hermann@enron.com'
p228
sg11
I150000
sg12
g5
sg13
g5
sg14
g5
sg15
g5
sg16
I416441
sg17
g5
sg18
I0
sg19
I700000
sg20
I0
sg21
I668132
sg22
g5
sg23
F0.742
sg24
g5
sg25
I480632
sg26
I262663
sg27
I1297461
sg28
F1.9419
sg29
I187500
ssS'SCRIMSHAW MATTHEW'
p229
(dp230
g3
g5
sg4
g5
sg6
g5
sg7
I00
sg8
g5
sg9
S'matthew.scrimshaw@enron.com'
p231
sg11
g5
sg12
g5
sg13
g5
sg14
g5
sg15
g5
sg16
g5
sg17
g5
sg18
I0
sg19
g5
sg20
I0
sg21
I759557
sg22
g5
sg23
I0
sg24
g5
sg25
g5
sg26
g5
sg27
g5
sg28
F0.0
sg29
I759557
ssS'GATHMANN WILLIAM D'
p232
(dp233
g3
g5
sg4
g5
sg6
g5
sg7
I00
sg8
g5
sg9
g5
sg11
g5
sg12
I-72419
sg13
g5
sg14
g5
sg15
g5
sg16
g5
sg17
g5
sg18
I0
sg19
g5
sg20
I0
sg21
I1945360
sg22
g5
sg23
I0
sg24
g5
sg25
I264013
sg26
g5
sg27
g5
sg28
F0.0
sg29
I1753766
ssS'HAEDICKE MARK E'
p234
(dp235
g3
I4009
sg4
I2157527
sg6
I76169
sg7
I00
sg8
I-934484
sg9
S'mark.haedicke@enron.com'
p236
sg11
I983346
sg12
I-329825
sg13
I1847
sg14
g5
sg15
I1941
sg16
I52382
sg17
g5
sg18
F0.03142709943328181
sg19
I1150000
sg20
F0.04489897730107259
sg21
I803094
sg22
I180
sg23
F0.3949
sg24
I61
sg25
I524169
sg26
I374125
sg27
I3859065
sg28
F4.8052
sg29
I608750
ssS'BOWEN JR RAYMOND M'
p237
(dp238
g3
I1858
sg4
g5
sg6
I65907
sg7
I01
sg8
I-833
sg9
S'raymond.bowen@enron.com'
p239
sg11
I974293
sg12
g5
sg13
I1593
sg14
g5
sg15
I27
sg16
I1621
sg17
g5
sg18
F0.5555555555555556
sg19
I1350000
sg20
F0.07534983853606028
sg21
I252055
sg22
I140
sg23
F0.6101
sg24
I15
sg25
I252055
sg26
I278601
sg27
I2669589
sg28
F10.5913
sg29
g5
ssS'GILLIS JOHN'
p240
(dp241
g3
g5
sg4
g5
sg6
g5
sg7
I00
sg8
g5
sg9
g5
sg11
g5
sg12
g5
sg13
g5
sg14
g5
sg15
g5
sg16
g5
sg17
g5
sg18
I0
sg19
g5
sg20
I0
sg21
I85641
sg22
g5
sg23
I0
sg24
g5
sg25
I75838
sg26
g5
sg27
g5
sg28
F0.0
sg29
I9803
ssS'FITZGERALD JAY L'
p242
(dp243
g3
I936
sg4
g5
sg6
I23870
sg7
I00
sg8
g5
sg9
S'jay.fitzgerald@enron.com'
p244
sg11
I556416
sg12
g5
sg13
I723
sg14
g5
sg15
I16
sg16
I285414
sg17
g5
sg18
F0.5
sg19
I350000
sg20
F0.0010683760683760685
sg21
I1621236
sg22
I1
sg23
F0.3881
sg24
I8
sg25
I956775
sg26
I199157
sg27
I1414857
sg28
F0.8727
sg29
I664461
ssS'MORAN MICHAEL P'
p245
(dp246
g3
I672
sg4
g5
sg6
g5
sg7
I00
sg8
g5
sg9
S'michael.moran@enron.com'
p247
sg11
g5
sg12
g5
sg13
I127
sg14
g5
sg15
I19
sg16
g5
sg17
g5
sg18
F0.0
sg19
g5
sg20
F0.0
sg21
I221141
sg22
I0
sg23
I0
sg24
I0
sg25
I161602
sg26
g5
sg27
g5
sg28
F0.0
sg29
I59539
ssS'REDMOND BRIAN L'
p248
(dp249
g3
I1671
sg4
g5
sg6
I14689
sg7
I00
sg8
g5
sg9
S'brian.redmond@enron.com'
p250
sg11
g5
sg12
g5
sg13
I1063
sg14
g5
sg15
I221
sg16
g5
sg17
g5
sg18
F0.22171945701357465
sg19
g5
sg20
F0.12208258527827648
sg21
I7890324
sg22
I204
sg23
F0.8683
sg24
I49
sg25
I381285
sg26
I96840
sg27
I111529
sg28
F0.0141
sg29
I7509039
ssS'BAZELIDES PHILIP J'
p251
(dp252
g3
g5
sg4
I684694
sg6
g5
sg7
I00
sg8
g5
sg9
g5
sg11
I93750
sg12
g5
sg13
g5
sg14
g5
sg15
g5
sg16
I874
sg17
g5
sg18
I0
sg19
g5
sg20
I0
sg21
I1599641
sg22
g5
sg23
F0.094
sg24
g5
sg25
g5
sg26
I80818
sg27
I860136
sg28
F0.5377
sg29
I1599641
ssS'BELDEN TIMOTHY N'
p253
(dp254
g3
I7991
sg4
I2144013
sg6
I17355
sg7
I01
sg8
I-2334434
sg9
S'tim.belden@enron.com'
p255
sg11
g5
sg12
g5
sg13
I5521
sg14
g5
sg15
I484
sg16
I210698
sg17
g5
sg18
F0.2231404958677686
sg19
I5249999
sg20
F0.028532098610937303
sg21
I1110705
sg22
I228
sg23
F0.9932
sg24
I108
sg25
I157569
sg26
I213999
sg27
I5501630
sg28
F4.9533
sg29
I953136
ssS'DURAN WILLIAM D'
p256
(dp257
g3
I904
sg4
g5
sg6
I25785
sg7
I00
sg8
g5
sg9
S'w.duran@enron.com'
p258
sg11
I1105218
sg12
g5
sg13
I599
sg14
g5
sg15
I12
sg16
I1568
sg17
g5
sg18
F0.25
sg19
I750000
sg20
F0.1172566371681416
sg21
I1640910
sg22
I106
sg23
F0.4589
sg24
I3
sg25
I189041
sg26
I210692
sg27
I2093263
sg28
F1.2757
sg29
I1451869
ssS'THORN TERENCE H'
p259
(dp260
g3
I266
sg4
I16586
sg6
I46145
sg7
I00
sg8
g5
sg9
S'terence.thorn@enron.com'
p261
sg11
I200000
sg12
g5
sg13
I73
sg14
g5
sg15
I41
sg16
I426629
sg17
g5
sg18
F0.0
sg19
g5
sg20
F0.0
sg21
I4817796
sg22
I0
sg23
F0.2437
sg24
I0
sg25
I365320
sg26
I222093
sg27
I911453
sg28
F0.1892
sg29
I4452476
ssS'FASTOW ANDREW S'
p262
(dp263
g3
g5
sg4
g5
sg6
I55921
sg7
I01
sg8
I-1386055
sg9
S'andrew.fastow@enron.com'
p264
sg11
I1736055
sg12
g5
sg13
g5
sg14
g5
sg15
g5
sg16
I277464
sg17
g5
sg18
I0
sg19
I1300000
sg20
I0
sg21
I1794412
sg22
g5
sg23
F0.7181
sg24
g5
sg25
I1794412
sg26
I440698
sg27
I2424083
sg28
F1.3509
sg29
g5
ssS'FOY JOE'
p265
(dp266
g3
I57
sg4
I181755
sg6
g5
sg7
I00
sg8
g5
sg9
S'tracy.foy@enron.com'
p267
sg11
g5
sg12
g5
sg13
I2
sg14
g5
sg15
I13
sg16
g5
sg17
g5
sg18
F0.0
sg19
g5
sg20
F0.0
sg21
I343434
sg22
I0
sg23
F0.0
sg24
I0
sg25
g5
sg26
g5
sg27
I181755
sg28
F0.5292
sg29
I343434
ssS'CALGER CHRISTOPHER F'
p268
(dp269
g3
I2598
sg4
g5
sg6
I35818
sg7
I01
sg8
I-262500
sg9
S'christopher.calger@enron.com'
p270
sg11
I375304
sg12
g5
sg13
I2188
sg14
g5
sg15
I144
sg16
I486
sg17
g5
sg18
F0.1736111111111111
sg19
I1250000
sg20
F0.07659738260200154
sg21
I126027
sg22
I199
sg23
F0.909
sg24
I25
sg25
I126027
sg26
I240189
sg27
I1639297
sg28
F13.0075
sg29
g5
ssS'RICE KENNETH D'
p271
(dp272
g3
I905
sg4
g5
sg6
I46950
sg7
I01
sg8
I-3504386
sg9
S'ken.rice@enron.com'
p273
sg11
I1617011
sg12
g5
sg13
I864
sg14
g5
sg15
I18
sg16
I174839
sg17
g5
sg18
F0.2222222222222222
sg19
I1750000
sg20
F0.04640883977900553
sg21
I22542539
sg22
I42
sg23
F4.2979
sg24
I4
sg25
I2748364
sg26
I420636
sg27
I505050
sg28
F0.0224
sg29
I19794175
ssS'KAMINSKI WINCENTY J'
p274
(dp275
g3
I4607
sg4
g5
sg6
I83585
sg7
I00
sg8
g5
sg9
S'vince.kaminski@enron.com'
p276
sg11
I323466
sg12
g5
sg13
I583
sg14
g5
sg15
I14368
sg16
I4669
sg17
g5
sg18
F0.011901447661469933
sg19
I400000
sg20
F0.008899500759713479
sg21
I976037
sg22
I41
sg23
F0.6212
sg24
I171
sg25
I126027
sg26
I275101
sg27
I1086821
sg28
F1.1135
sg29
I850010
ssS'COX DAVID'
p277
(dp278
g3
I102
sg4
g5
sg6
I27861
sg7
I00
sg8
I-41250
sg9
S'chip.cox@enron.com'
p279
sg11
g5
sg12
g5
sg13
I71
sg14
g5
sg15
I33
sg16
I494
sg17
g5
sg18
F0.12121212121212122
sg19
I800000
sg20
F0.0
sg21
I495633
sg22
I0
sg23
F1.0117
sg24
I4
sg25
I378082
sg26
I314288
sg27
I1101393
sg28
F2.2222
sg29
I117551
ssS'OVERDYKE JR JERE C'
p280
(dp281
g3
g5
sg4
g5
sg6
I18834
sg7
I00
sg8
g5
sg9
S'jere.overdyke@enron.com'
p282
sg11
I135836
sg12
g5
sg13
g5
sg14
g5
sg15
g5
sg16
I176
sg17
g5
sg18
I0
sg19
g5
sg20
I0
sg21
I7307594
sg22
g5
sg23
F0.3801
sg24
g5
sg25
I2041016
sg26
I94941
sg27
I249787
sg28
F0.0342
sg29
I5266578
ssS'PEREIRA PAULO V. FERRAZ'
p283
(dp284
g3
g5
sg4
g5
sg6
I27942
sg7
I00
sg8
I-101250
sg9
g5
sg11
g5
sg12
g5
sg13
g5
sg14
g5
sg15
g5
sg16
g5
sg17
I101250
sg18
I0
sg19
g5
sg20
I0
sg21
g5
sg22
g5
sg23
F0.0
sg24
g5
sg25
g5
sg26
g5
sg27
I27942
sg28
I0
sg29
g5
ssS'STABLER FRANK'
p285
(dp286
g3
g5
sg4
g5
sg6
I16514
sg7
I00
sg8
g5
sg9
S'frank.stabler@enron.com'
p287
sg11
g5
sg12
g5
sg13
g5
sg14
g5
sg15
g5
sg16
I356071
sg17
g5
sg18
I0
sg19
I500000
sg20
I0
sg21
I511734
sg22
g5
sg23
F0.665
sg24
g5
sg25
I511734
sg26
I239502
sg27
I1112087
sg28
F2.1732
sg29
g5
ssS'SKILLING JEFFREY K'
p288
(dp289
g3
I3627
sg4
g5
sg6
I29336
sg7
I01
sg8
g5
sg9
S'jeff.skilling@enron.com'
p290
sg11
I1920000
sg12
g5
sg13
I2042
sg14
g5
sg15
I108
sg16
I22122
sg17
g5
sg18
F0.2777777777777778
sg19
I5600000
sg20
F0.0242624758753791
sg21
I26093672
sg22
I88
sg23
F0.7729
sg24
I30
sg25
I6843672
sg26
I1111258
sg27
I8682716
sg28
F0.3328
sg29
I19250000
ssS'BLAKE JR. NORMAN P'
p291
(dp292
g3
g5
sg4
g5
sg6
I1279
sg7
I00
sg8
I-113784
sg9
g5
sg11
g5
sg12
g5
sg13
g5
sg14
g5
sg15
g5
sg16
g5
sg17
I113784
sg18
I0
sg19
g5
sg20
I0
sg21
g5
sg22
g5
sg23
F0.0
sg24
g5
sg25
g5
sg26
g5
sg27
I1279
sg28
I0
sg29
g5
ssS'SHERRICK JEFFREY B'
p293
(dp294
g3
I613
sg4
g5
sg6
g5
sg7
I00
sg8
g5
sg9
S'jeffrey.sherrick@enron.com'
p295
sg11
g5
sg12
g5
sg13
I583
sg14
g5
sg15
I25
sg16
g5
sg17
g5
sg18
F0.72
sg19
g5
sg20
F0.0636215334420881
sg21
I1832468
sg22
I39
sg23
I0
sg24
I18
sg25
I405999
sg26
g5
sg27
g5
sg28
F0.0
sg29
I1426469
ssS'PRENTICE JAMES'
p296
(dp297
g3
g5
sg4
I564348
sg6
g5
sg7
I00
sg8
g5
sg9
S'james.prentice@enron.com'
p298
sg11
g5
sg12
g5
sg13
g5
sg14
g5
sg15
g5
sg16
g5
sg17
g5
sg18
I0
sg19
g5
sg20
I0
sg21
I1095040
sg22
g5
sg23
F0.0
sg24
g5
sg25
I208809
sg26
g5
sg27
I564348
sg28
F0.5154
sg29
I886231
ssS'GRAY RODNEY'
p299
(dp300
g3
g5
sg4
I93585
sg6
g5
sg7
I00
sg8
g5
sg9
g5
sg11
I365625
sg12
g5
sg13
g5
sg14
g5
sg15
g5
sg16
I680833
sg17
g5
sg18
I0
sg19
g5
sg20
I0
sg21
g5
sg22
g5
sg23
F0.0058
sg24
g5
sg25
g5
sg26
I6615
sg27
I1146658
sg28
I0
sg29
g5
ssS'PICKERING MARK R'
p301
(dp302
g3
I898
sg4
g5
sg6
I31653
sg7
I00
sg8
g5
sg9
S'mark.pickering@enron.com'
p303
sg11
g5
sg12
g5
sg13
I728
sg14
I400000
sg15
I67
sg16
g5
sg17
g5
sg18
F0.0
sg19
I300000
sg20
F0.0077951002227171495
sg21
I28798
sg22
I7
sg23
F0.6887
sg24
I0
sg25
g5
sg26
I655037
sg27
I1386690
sg28
F48.1523
sg29
I28798
ssS'NOLES JAMES L'
p304
(dp305
g3
g5
sg4
I774401
sg6
g5
sg7
I00
sg8
g5
sg9
g5
sg11
g5
sg12
I-94556
sg13
g5
sg14
g5
sg15
g5
sg16
g5
sg17
g5
sg18
I0
sg19
g5
sg20
I0
sg21
I368705
sg22
g5
sg23
F0.0
sg24
g5
sg25
I463261
sg26
g5
sg27
I774401
sg28
F2.1003
sg29
g5
ssS'KEAN STEVEN J'
p306
(dp307
g3
I12754
sg4
g5
sg6
I41953
sg7
I00
sg8
g5
sg9
S'steven.kean@enron.com'
p308
sg11
I300000
sg12
g5
sg13
I3639
sg14
g5
sg15
I6759
sg16
I1231
sg17
g5
sg18
F0.05725699067909454
sg19
I1000000
sg20
F0.010976948408342482
sg21
I6153642
sg22
I140
sg23
F0.8036
sg24
I387
sg25
I4131594
sg26
I404338
sg27
I1747522
sg28
F0.284
sg29
I2022048
ssS'FOWLER PEGGY'
p309
(dp310
g3
I517
sg4
g5
sg6
g5
sg7
I00
sg8
g5
sg9
S'kulvinder.fowler@enron.com'
p311
sg11
g5
sg12
g5
sg13
I10
sg14
g5
sg15
I36
sg16
g5
sg17
g5
sg18
F0.0
sg19
g5
sg20
F0.0
sg21
I1884748
sg22
I0
sg23
I0
sg24
I0
sg25
I560170
sg26
g5
sg27
g5
sg28
F0.0
sg29
I1324578
ssS'WASAFF GEORGE'
p312
(dp313
g3
I400
sg4
I831299
sg6
g5
sg7
I00
sg8
I-583325
sg9
S'george.wasaff@enron.com'
p314
sg11
I200000
sg12
g5
sg13
I337
sg14
g5
sg15
I30
sg16
I1425
sg17
g5
sg18
F0.23333333333333334
sg19
I325000
sg20
F0.055
sg21
I2056427
sg22
I22
sg23
F0.5655
sg24
I7
sg25
I388167
sg26
I259996
sg27
I1034395
sg28
F0.503
sg29
I1668260
ssS'WHITE JR THOMAS E'
p315
(dp316
g3
g5
sg4
g5
sg6
I81353
sg7
I00
sg8
g5
sg9
S'thomas.white@enron.com'
p317
sg11
g5
sg12
g5
sg13
g5
sg14
g5
sg15
g5
sg16
I1085463
sg17
g5
sg18
I0
sg19
I450000
sg20
I0
sg21
I15144123
sg22
g5
sg23
F0.3968
sg24
g5
sg25
I13847074
sg26
I317543
sg27
I1934359
sg28
F0.1277
sg29
I1297049
ssS'CHRISTODOULOU DIOMEDES'
p318
(dp319
g3
g5
sg4
g5
sg6
g5
sg7
I00
sg8
g5
sg9
S'diomedes.christodoulou@enron.com'
p320
sg11
g5
sg12
g5
sg13
g5
sg14
g5
sg15
g5
sg16
g5
sg17
g5
sg18
I0
sg19
g5
sg20
I0
sg21
I6077885
sg22
g5
sg23
I0
sg24
g5
sg25
I950730
sg26
g5
sg27
g5
sg28
F0.0
sg29
I5127155
ssS'ALLEN PHILLIP K'
p321
(dp322
g3
I2902
sg4
I2869717
sg6
I13868
sg7
I00
sg8
I-3081055
sg9
S'phillip.allen@enron.com'
p323
sg11
I304805
sg12
I-126027
sg13
I1407
sg14
g5
sg15
I2195
sg16
I152
sg17
g5
sg18
F0.029612756264236904
sg19
I4175000
sg20
F0.016195727084769126
sg21
I1729541
sg22
I47
sg23
F0.976
sg24
I65
sg25
I126027
sg26
I201955
sg27
I4484442
sg28
F2.5929
sg29
I1729541
ssS'SHARP VICTORIA T'
p324
(dp325
g3
I3136
sg4
I187469
sg6
I116337
sg7
I00
sg8
g5
sg9
S'vicki.sharp@enron.com'
p326
sg11
I422158
sg12
g5
sg13
I2477
sg14
g5
sg15
I136
sg16
I2401
sg17
g5
sg18
F0.04411764705882353
sg19
I600000
sg20
F0.007653061224489796
sg21
I494136
sg22
I24
sg23
F0.538
sg24
I6
sg25
I213063
sg26
I248146
sg27
I1576511
sg28
F3.1904
sg29
I281073
ssS'JAEDICKE ROBERT'
p327
(dp328
g3
g5
sg4
g5
sg6
g5
sg7
I00
sg8
I-25000
sg9
g5
sg11
g5
sg12
I-44093
sg13
g5
sg14
g5
sg15
g5
sg16
g5
sg17
I108750
sg18
I0
sg19
g5
sg20
I0
sg21
I431750
sg22
g5
sg23
F0.0
sg24
g5
sg25
I44093
sg26
g5
sg27
I83750
sg28
F0.194
sg29
I431750
ssS'WINOKUR JR. HERBERT S'
p329
(dp330
g3
g5
sg4
g5
sg6
I1413
sg7
I00
sg8
I-25000
sg9
g5
sg11
g5
sg12
g5
sg13
g5
sg14
g5
sg15
g5
sg16
g5
sg17
I108579
sg18
I0
sg19
g5
sg20
I0
sg21
g5
sg22
g5
sg23
F0.0
sg24
g5
sg25
g5
sg26
g5
sg27
I84992
sg28
I0
sg29
g5
ssS'BROWN MICHAEL'
p331
(dp332
g3
I1486
sg4
g5
sg6
I49288
sg7
I00
sg8
g5
sg9
S'michael.brown@enron.com'
p333
sg11
g5
sg12
g5
sg13
I761
sg14
g5
sg15
I41
sg16
g5
sg17
g5
sg18
F0.024390243902439025
sg19
g5
sg20
F0.008748317631224764
sg21
g5
sg22
I13
sg23
F0.0
sg24
I1
sg25
g5
sg26
g5
sg27
I49288
sg28
I0
sg29
g5
ssS'BADUM JAMES P'
p334
(dp335
g3
g5
sg4
I178980
sg6
I3486
sg7
I00
sg8
g5
sg9
g5
sg11
g5
sg12
g5
sg13
g5
sg14
g5
sg15
g5
sg16
g5
sg17
g5
sg18
I0
sg19
g5
sg20
I0
sg21
I257817
sg22
g5
sg23
F0.0
sg24
g5
sg25
g5
sg26
g5
sg27
I182466
sg28
F0.7077
sg29
I257817
ssS'HUGHES JAMES A'
p336
(dp337
g3
I719
sg4
g5
sg6
g5
sg7
I00
sg8
g5
sg9
S'james.hughes@enron.com'
p338
sg11
g5
sg12
g5
sg13
I589
sg14
g5
sg15
I34
sg16
g5
sg17
g5
sg18
F0.14705882352941177
sg19
g5
sg20
F0.048678720445062586
sg21
I1118394
sg22
I35
sg23
I0
sg24
I5
sg25
I363428
sg26
g5
sg27
g5
sg28
F0.0
sg29
I754966
ssS'REYNOLDS LAWRENCE'
p339
(dp340
g3
g5
sg4
I51365
sg6
I8409
sg7
I00
sg8
I-200000
sg9
g5
sg11
I156250
sg12
I-140264
sg13
g5
sg14
g5
sg15
g5
sg16
I202052
sg17
g5
sg18
I0
sg19
I100000
sg20
I0
sg21
I4221891
sg22
g5
sg23
F0.4472
sg24
g5
sg25
I201483
sg26
I76399
sg27
I394475
sg28
F0.0934
sg29
I4160672
ssS'DIMICHELE RICHARD G'
p341
(dp342
g3
g5
sg4
g5
sg6
I35812
sg7
I00
sg8
g5
sg9
S'richard.dimichele@enron.com'
p343
sg11
I694862
sg12
g5
sg13
g5
sg14
g5
sg15
g5
sg16
I374689
sg17
g5
sg18
I0
sg19
I1000000
sg20
I0
sg21
I8317782
sg22
g5
sg23
F0.5332
sg24
g5
sg25
I126027
sg26
I262788
sg27
I2368151
sg28
F0.2847
sg29
I8191755
ssS'BHATNAGAR SANJAY'
p344
(dp345
g3
I523
sg4
g5
sg6
g5
sg7
I00
sg8
g5
sg9
S'sanjay.bhatnagar@enron.com'
p346
sg11
g5
sg12
I15456290
sg13
I463
sg14
g5
sg15
I29
sg16
I137864
sg17
I137864
sg18
F0.034482758620689655
sg19
g5
sg20
F0.0
sS'total_stock_value'
p347
S'NaN'
p348
sg22
I0
sg23
F0.0
sg24
I1
sg25
I-2604490
sg26
g5
sg27
I15456290
sg28
I0
sg29
I2604490
ssS'CARTER REBECCA C'
p349
(dp350
g3
I312
sg4
g5
sg6
g5
sg7
I00
sg8
I-159792
sg9
S'rebecca.carter@enron.com'
p351
sg11
I75000
sg12
I-307301
sg13
I196
sg14
g5
sg15
I15
sg16
I540
sg17
g5
sg18
F0.4666666666666667
sg19
I300000
sg20
F0.09294871794871795
sg21
g5
sg22
I29
sg23
F1.1764
sg24
I7
sg25
I307301
sg26
I261809
sg27
I477557
sg28
I0
sg29
g5
ssS'BUCHANAN HAROLD G'
p352
(dp353
g3
I1088
sg4
g5
sg6
I600
sg7
I00
sg8
g5
sg9
S'john.buchanan@enron.com'
p354
sg11
I304805
sg12
g5
sg13
I23
sg14
g5
sg15
I125
sg16
I1215
sg17
g5
sg18
F0.0
sg19
I500000
sg20
F0.0
sg21
I1014505
sg22
I0
sg23
F0.7093
sg24
I0
sg25
I189041
sg26
I248017
sg27
I1054637
sg28
F1.0396
sg29
I825464
ssS'YEAP SOON'
p355
(dp356
g3
g5
sg4
g5
sg6
I55097
sg7
I00
sg8
g5
sg9
g5
sg11
g5
sg12
g5
sg13
g5
sg14
g5
sg15
g5
sg16
g5
sg17
g5
sg18
I0
sg19
g5
sg20
I0
sg21
I192758
sg22
g5
sg23
F0.0
sg24
g5
sg25
g5
sg26
g5
sg27
I55097
sg28
F0.2858
sg29
I192758
ssS'MURRAY JULIA H'
p357
(dp358
g3
I2192
sg4
g5
sg6
I57580
sg7
I00
sg8
g5
sg9
S'julia.murray@enron.com'
p359
sg11
I125000
sg12
g5
sg13
I395
sg14
g5
sg15
I45
sg16
I330
sg17
g5
sg18
F0.044444444444444446
sg19
I400000
sg20
F0.005018248175182482
sg21
I597461
sg22
I11
sg23
F0.7748
sg24
I2
sg25
I196983
sg26
I229284
sg27
I812194
sg28
F1.3594
sg29
I400478
ssS'GARLAND C KEVIN'
p360
(dp361
g3
I209
sg4
g5
sg6
I48405
sg7
I00
sg8
g5
sg9
S'kevin.garland@enron.com'
p362
sg11
I375304
sg12
g5
sg13
I178
sg14
g5
sg15
I44
sg16
I60814
sg17
g5
sg18
F0.6136363636363636
sg19
I850000
sg20
F0.04784688995215311
sg21
I896153
sg22
I10
sg23
F0.6907
sg24
I27
sg25
I259907
sg26
I231946
sg27
I1566469
sg28
F1.748
sg29
I636246
ssS'DODSON KEITH'
p363
(dp364
g3
I176
sg4
g5
sg6
I28164
sg7
I00
sg8
g5
sg9
S'keith.dodson@enron.com'
p365
sg11
g5
sg12
g5
sg13
I114
sg14
g5
sg15
I14
sg16
I774
sg17
g5
sg18
F0.21428571428571427
sg19
I70000
sg20
F0.056818181818181816
sg21
g5
sg22
I10
sg23
F0.9096
sg24
I3
sg25
g5
sg26
I221003
sg27
I319941
sg28
I0
sg29
g5
ssS'YEAGER F SCOTT'
p366
(dp367
g3
g5
sg4
g5
sg6
I53947
sg7
I01
sg8
g5
sg9
S'scott.yeager@enron.com'
p368
sg11
g5
sg12
g5
sg13
g5
sg14
g5
sg15
g5
sg16
I147950
sg17
g5
sg18
I0
sg19
g5
sg20
I0
sg21
I11884758
sg22
g5
sg23
F0.4396
sg24
g5
sg25
I3576206
sg26
I158403
sg27
I360300
sg28
F0.0303
sg29
I8308552
ssS'HIRKO JOSEPH'
p369
(dp370
g3
g5
sg4
I10259
sg6
I77978
sg7
I01
sg8
g5
sg9
S'joe.hirko@enron.com'
p371
sg11
g5
sg12
g5
sg13
g5
sg14
g5
sg15
g5
sg16
I2856
sg17
g5
sg18
I0
sg19
g5
sg20
I0
sg21
I30766064
sg22
g5
sg23
F0.0
sg24
g5
sg25
g5
sg26
g5
sg27
I91093
sg28
F0.003
sg29
I30766064
ssS'DIETRICH JANET R'
p372
(dp373
g3
I2572
sg4
g5
sg6
I3475
sg7
I00
sg8
g5
sg9
S'janet.dietrich@enron.com'
p374
sg11
I556416
sg12
g5
sg13
I1902
sg14
g5
sg15
I63
sg16
I473
sg17
g5
sg18
F0.2222222222222222
sg19
I600000
sg20
F0.11858475894245724
sg21
I1865087
sg22
I305
sg23
F0.6027
sg24
I14
sg25
I315068
sg26
I250100
sg27
I1410464
sg28
F0.7562
sg29
I1550019
ssS'DERRICK JR. JAMES V'
p375
(dp376
g3
I2181
sg4
g5
sg6
I51124
sg7
I00
sg8
I-1284000
sg9
S'james.derrick@enron.com'
p377
sg11
I484000
sg12
I-1787380
sg13
I1401
sg14
g5
sg15
I909
sg16
I7482
sg17
g5
sg18
F0.022002200220022004
sg19
I800000
sg20
F0.029344337459880788
sg21
I8831913
sg22
I64
sg23
F2.3456
sg24
I20
sg25
I1787380
sg26
I492375
sg27
I550981
sg28
F0.0624
sg29
I8831913
ssS'FREVERT MARK A'
p378
(dp379
g3
I3275
sg4
I6426990
sg6
I86987
sg7
I00
sg8
I-3367011
sg9
S'mark.frevert@enron.com'
p380
sg11
I1617011
sg12
g5
sg13
I2979
sg14
I2000000
sg15
I21
sg16
I7427621
sg17
g5
sg18
F0.2857142857142857
sg19
I2000000
sg20
F0.07389312977099237
sg21
I14622185
sg22
I242
sg23
F0.1774
sg24
I6
sg25
I4188667
sg26
I1060932
sg27
I17252530
sg28
F1.1799
sg29
I10433518
ssS'PAI LOU L'
p381
(dp382
g3
g5
sg4
g5
sg6
I32047
sg7
I00
sg8
g5
sg9
S'lou.pai@enron.com'
p383
sg11
g5
sg12
g5
sg13
g5
sg14
g5
sg15
g5
sg16
I1829457
sg17
g5
sg18
I0
sg19
I1000000
sg20
I0
sg21
I23817930
sg22
g5
sg23
F0.404
sg24
g5
sg25
I8453763
sg26
I261879
sg27
I3123383
sg28
F0.1311
sg29
I15364167
ssS'BAY FRANKLIN R'
p384
(dp385
g3
g5
sg4
I260455
sg6
I129142
sg7
I00
sg8
I-201641
sg9
S'frank.bay@enron.com'
p386
sg11
g5
sg12
I-82782
sg13
g5
sg14
g5
sg15
g5
sg16
I69
sg17
g5
sg18
I0
sg19
I400000
sg20
I0
sg21
I63014
sg22
g5
sg23
F0.7728
sg24
g5
sg25
I145796
sg26
I239671
sg27
I827696
sg28
F13.1351
sg29
g5
ssS'HAYSLETT RODERICK J'
p387
(dp388
g3
I2649
sg4
g5
sg6
g5
sg7
I00
sg8
g5
sg9
S'rod.hayslett@enron.com'
p389
sg11
g5
sg12
g5
sg13
I571
sg14
g5
sg15
I1061
sg16
g5
sg17
g5
sg18
F0.03581526861451461
sg19
g5
sg20
F0.01321253303133258
sg21
I346663
sg22
I35
sg23
I0
sg24
I38
sg25
I346663
sg26
g5
sg27
g5
sg28
F0.0
sg29
g5
ssS'FUGH JOHN L'
p390
(dp391
g3
g5
sg4
I50591
sg6
g5
sg7
I00
sg8
g5
sg9
g5
sg11
g5
sg12
g5
sg13
g5
sg14
g5
sg15
g5
sg16
g5
sg17
g5
sg18
I0
sg19
g5
sg20
I0
sg21
I176378
sg22
g5
sg23
F0.0
sg24
g5
sg25
g5
sg26
g5
sg27
I50591
sg28
F0.2868
sg29
I176378
ssS'FALLON JAMES B'
p392
(dp393
g3
I1755
sg4
g5
sg6
I95924
sg7
I00
sg8
g5
sg9
S'jim.fallon@enron.com'
p394
sg11
I374347
sg12
g5
sg13
I1604
sg14
g5
sg15
I75
sg16
I401481
sg17
g5
sg18
F0.49333333333333335
sg19
I2500000
sg20
F0.023931623931623933
sg21
I2332399
sg22
I42
sg23
F0.7629
sg24
I37
sg25
I1392142
sg26
I304588
sg27
I3676340
sg28
F1.5762
sg29
I940257
ssS'KOENIG MARK E'
p395
(dp396
g3
I2374
sg4
g5
sg6
I127017
sg7
I01
sg8
g5
sg9
S'mark.koenig@enron.com'
p397
sg11
I300000
sg12
g5
sg13
I2271
sg14
g5
sg15
I61
sg16
I150458
sg17
g5
sg18
F0.2459016393442623
sg19
I700000
sg20
F0.02232518955349621
sg21
I1920055
sg22
I53
sg23
F0.6362
sg24
I15
sg25
I1248318
sg26
I309946
sg27
I1587421
sg28
F0.8268
sg29
I671737
ssS'SAVAGE FRANK'
p398
(dp399
g3
g5
sg4
g5
sg6
g5
sg7
I00
sg8
I-121284
sg9
g5
sg11
g5
sg12
g5
sg13
g5
sg14
g5
sg15
g5
sg16
g5
sg17
I125034
sg18
I0
sg19
g5
sg20
I0
sg21
g5
sg22
g5
sg23
F0.0
sg24
g5
sg25
g5
sg26
g5
sg27
I3750
sg28
I0
sg29
g5
ssS'IZZO LAWRENCE L'
p400
(dp401
g3
I496
sg4
g5
sg6
I28093
sg7
I00
sg8
g5
sg9
S'larry.izzo@enron.com'
p402
sg11
I312500
sg12
g5
sg13
I437
sg14
g5
sg15
I19
sg16
I1553729
sg17
g5
sg18
F0.2631578947368421
sg19
g5
sg20
F0.056451612903225805
sg21
I5819980
sg22
I28
sg23
F0.0431
sg24
I5
sg25
I3654808
sg26
I85274
sg27
I1979596
sg28
F0.3401
sg29
I2165172
ssS'TILNEY ELIZABETH A'
p403
(dp404
g3
I460
sg4
g5
sg6
g5
sg7
I00
sg8
I-575000
sg9
S'elizabeth.tilney@enron.com'
p405
sg11
I275000
sg12
g5
sg13
I379
sg14
g5
sg15
I19
sg16
I152055
sg17
g5
sg18
F0.5789473684210527
sg19
I300000
sg20
F0.021739130434782608
sg21
I1168042
sg22
I10
sg23
F1.3704
sg24
I11
sg25
I576792
sg26
I247338
sg27
I399393
sg28
F0.3419
sg29
I591250
ssS'MARTIN AMANDA K'
p406
(dp407
g3
I1522
sg4
I85430
sg6
I8211
sg7
I00
sg8
g5
sg9
S'a..martin@enron.com'
p408
sg11
I5145434
sg12
g5
sg13
I477
sg14
g5
sg15
I230
sg16
I2818454
sg17
g5
sg18
F0.0
sg19
g5
sg20
F0.005256241787122208
sg21
I2070306
sg22
I8
sg23
F0.0416
sg24
I0
sg25
g5
sg26
I349487
sg27
I8407016
sg28
F4.0608
sg29
I2070306
ssS'BUY RICHARD B'
p409
(dp410
g3
I3523
sg4
I649584
sg6
g5
sg7
I00
sg8
I-694862
sg9
S'rick.buy@enron.com'
p411
sg11
I769862
sg12
g5
sg13
I2333
sg14
g5
sg15
I1053
sg16
I400572
sg17
g5
sg18
F0.06742640075973409
sg19
I900000
sg20
F0.04428044280442804
sg21
I3444470
sg22
I156
sg23
F0.5224
sg24
I71
sg25
I901657
sg26
I330546
sg27
I2355702
sg28
F0.6839
sg29
I2542813
ssS'GRAMM WENDY L'
p412
(dp413
g3
g5
sg4
g5
sg6
g5
sg7
I00
sg8
g5
sg9
g5
sg11
g5
sg12
g5
sg13
g5
sg14
g5
sg15
g5
sg16
g5
sg17
I119292
sg18
I0
sg19
g5
sg20
I0
sg21
g5
sg22
g5
sg23
F0.0
sg24
g5
sg25
g5
sg26
g5
sg27
I119292
sg28
I0
sg29
g5
ssS'CAUSEY RICHARD A'
p414
(dp415
g3
I1892
sg4
g5
sg6
I30674
sg7
I01
sg8
I-235000
sg9
S'richard.causey@enron.com'
p416
sg11
I350000
sg12
g5
sg13
I1585
sg14
g5
sg15
I49
sg16
I307895
sg17
g5
sg18
F0.24489795918367346
sg19
I1000000
sg20
F0.0306553911205074
sg21
I2502063
sg22
I58
sg23
F0.7573
sg24
I12
sg25
I2502063
sg26
I415189
sg27
I1868758
sg28
F0.7469
sg29
g5
ssS'TAYLOR MITCHELL S'
p417
(dp418
g3
I533
sg4
I227449
sg6
g5
sg7
I00
sg8
g5
sg9
S'mitchell.taylor@enron.com'
p419
sg11
g5
sg12
g5
sg13
I300
sg14
g5
sg15
I29
sg16
g5
sg17
g5
sg18
F0.0
sg19
I600000
sg20
F0.0
sg21
I3745048
sg22
I0
sg23
F0.7918
sg24
I0
sg25
I563798
sg26
I265214
sg27
I1092663
sg28
F0.2918
sg29
I3181250
ssS'DONAHUE JR JEFFREY M'
p420
(dp421
g3
I865
sg4
g5
sg6
I96268
sg7
I00
sg8
I-300000
sg9
S'jeff.donahue@enron.com'
p422
sg11
g5
sg12
g5
sg13
I772
sg14
g5
sg15
I22
sg16
I891
sg17
g5
sg18
F0.5
sg19
I800000
sg20
F0.21734104046242775
sg21
I1080988
sg22
I188
sg23
F1.2316
sg24
I11
sg25
I315068
sg26
I278601
sg27
I875760
sg28
F0.8101
sg29
I765920
ssS'GLISAN JR BEN F'
p423
(dp424
g3
I873
sg4
g5
sg6
I125978
sg7
I01
sg8
g5
sg9
S'ben.glisan@enron.com'
p425
sg11
I71023
sg12
g5
sg13
I874
sg14
g5
sg15
I16
sg16
I200308
sg17
g5
sg18
F0.375
sg19
I600000
sg20
F0.05956471935853379
sg21
I778546
sg22
I52
sg23
F0.6877
sg24
I6
sg25
I393818
sg26
I274975
sg27
I1272284
sg28
F1.6342
sg29
I384728
ss.