(lp0
S'poi'
p1
aS'salary'
p2
aS'deferral_payments'
p3
aS'total_payments'
p4
aS'bonus'
p5
aS'restricted_stock_deferred'
p6
aS'deferred_income'
p7
aS'total_stock_value'
p8
aS'expenses'
p9
aS'exercised_stock_options'
p10
aS'other'
p11
aS'long_term_incentive'
p12
aS'restricted_stock'
p13
aS'director_fees'
p14
aS'to_messages'
p15
aS'from_poi_to_this_person'
p16
aS'from_messages'
p17
aS'from_this_person_to_poi'
p18
aS'shared_receipt_with_poi'
p19
aS'sal_pkg_pct'
p20
aS'pay_stock_ratio'
p21
aS'ratio_to_msg'
p22
aS'ratio_from_msg'
p23
a.