(lp0
S'poi'
p1
aS'salary'
p2
aS'deferral_payments'
p3
aS'total_payments'
p4
aS'loan_advances'
p5
aS'bonus'
p6
aS'restricted_stock_deferred'
p7
aS'deferred_income'
p8
aS'total_stock_value'
p9
aS'expenses'
p10
aS'exercised_stock_options'
p11
aS'other'
p12
aS'long_term_incentive'
p13
aS'restricted_stock'
p14
aS'director_fees'
p15
aS'sal_pkg_pct'
p16
aS'pay_stock_ratio'
p17
aS'ratio_to_msg'
p18
aS'ratio_from_msg'
p19
aS'to_messages'
p20
aS'from_poi_to_this_person'
p21
aS'from_messages'
p22
aS'from_this_person_to_poi'
p23
a.